	.file	"bounds.c"
# GNU C11 (Ubuntu 5.4.0-6ubuntu1~16.04.2) version 5.4.0 20160609 (x86_64-linux-gnu)
#	compiled by GNU C version 5.4.0 20160609, GMP version 6.1.0, MPFR version 3.1.4, MPC version 1.0.3
# GGC heuristics: --param ggc-min-expand=100 --param ggc-min-heapsize=131072
# options passed:  -nostdinc -I /home/paul/Desktop/kernel/arch/x86/include
# -I arch/x86/include/generated -I include
# -I /home/paul/Desktop/kernel/arch/x86/include/uapi
# -I arch/x86/include/generated/uapi
# -I /home/paul/Desktop/kernel/include/uapi -I include/generated/uapi
# -I /home/paul/Desktop/kernel/../vendor/hisi/modem/include/taf/
# -I /home/paul/Desktop/kernel/../kernel/drivers/vendor/hisi/modem/include/taf
# -I /home/paul/Desktop/kernel/../kernel/drivers/vendor/hisi/ap/platform/hi3650
# -I /home/paul/Desktop/kernel/../kernel/drivers/vendor/hisi/audiodsp/include/ap/med
# -I /home/paul/Desktop/kernel/../kernel/drivers/vendor/hisi/modem/include/taf
# -I /home/paul/Desktop/kernel/../kernel/drivers/vendor/hisi/ap/platform/hi3650
# -I /home/paul/Desktop/kernel/../kernel/drivers/vendor/hisi/audiodsp/include/ap/med
# -imultiarch x86_64-linux-gnu -D __KERNEL__ -D FEATURE_ON=1
# -D FEATURE_OFF=0 -D BSP_CORE_APP -D BSP_COMPILE_ALLY
# -D CONFIG_X86_X32_ABI -D CONFIG_AS_CFI=1 -D CONFIG_AS_CFI_SIGNAL_FRAME=1
# -D CONFIG_AS_CFI_SECTIONS=1 -D CONFIG_AS_FXSAVEQ=1 -D CONFIG_AS_AVX=1
# -D CONFIG_AS_AVX2=1 -D CC_USING_FENTRY -D CC_HAVE_ASM_GOTO
# -D BSP_CORE_APP -D BSP_COMPILE_ALLY -D KBUILD_STR(s)=#s
# -D KBUILD_BASENAME=KBUILD_STR(bounds)
# -D KBUILD_MODNAME=KBUILD_STR(bounds)
# -isystem /usr/lib/gcc/x86_64-linux-gnu/5/include
# -include /home/paul/Desktop/kernel/include/linux/kconfig.h
# -MD kernel/.bounds.s.d kernel/bounds.c -m64 -mpreferred-stack-boundary=3
# -mtune=generic -mno-red-zone -mcmodel=kernel -maccumulate-outgoing-args
# -mno-sse -mno-mmx -mno-sse2 -mno-3dnow -mno-avx -mfentry -march=x86-64
# -auxbase-strip kernel/bounds.s -g -g -O2 -Wall -Wundef
# -Wstrict-prototypes -Wno-trigraphs -Wimplicit-function-declaration
# -Wno-format-security -Wno-sign-compare -Wframe-larger-than=1024
# -Wno-unused-but-set-variable -Wdeclaration-after-statement
# -Wno-pointer-sign -p -fno-strict-aliasing -fno-common
# -fno-delete-null-pointer-checks -funit-at-a-time -fstack-protector
# -fno-asynchronous-unwind-tables -fno-omit-frame-pointer
# -fno-optimize-sibling-calls -fno-var-tracking-assignments
# -fno-strict-overflow -fconserve-stack -fverbose-asm
# options enabled:  -faggressive-loop-optimizations -falign-labels
# -fauto-inc-dec -fbranch-count-reg -fcaller-saves
# -fchkp-check-incomplete-type -fchkp-check-read -fchkp-check-write
# -fchkp-instrument-calls -fchkp-narrow-bounds -fchkp-optimize
# -fchkp-store-bounds -fchkp-use-static-bounds
# -fchkp-use-static-const-bounds -fchkp-use-wrappers
# -fcombine-stack-adjustments -fcompare-elim -fcprop-registers
# -fcrossjumping -fcse-follow-jumps -fdefer-pop -fdevirtualize
# -fdevirtualize-speculatively -fdwarf2-cfi-asm -fearly-inlining
# -feliminate-unused-debug-types -fexpensive-optimizations
# -fforward-propagate -ffunction-cse -fgcse -fgcse-lm -fgnu-runtime
# -fgnu-unique -fguess-branch-probability -fhoist-adjacent-loads -fident
# -fif-conversion -fif-conversion2 -findirect-inlining -finline
# -finline-atomics -finline-functions-called-once -finline-small-functions
# -fipa-cp -fipa-cp-alignment -fipa-icf -fipa-icf-functions
# -fipa-icf-variables -fipa-profile -fipa-pure-const -fipa-reference
# -fipa-sra -fira-hoist-pressure -fira-share-save-slots
# -fira-share-spill-slots -fisolate-erroneous-paths-dereference -fivopts
# -fkeep-static-consts -fleading-underscore -flifetime-dse -flra-remat
# -flto-odr-type-merging -fmath-errno -fmerge-constants
# -fmerge-debug-strings -fmove-loop-invariants -foptimize-strlen
# -fpartial-inlining -fpeephole -fpeephole2 -fprefetch-loop-arrays
# -fprofile -free -freg-struct-return -freorder-blocks
# -freorder-blocks-and-partition -freorder-functions -frerun-cse-after-loop
# -fsched-critical-path-heuristic -fsched-dep-count-heuristic
# -fsched-group-heuristic -fsched-interblock -fsched-last-insn-heuristic
# -fsched-rank-heuristic -fsched-spec -fsched-spec-insn-heuristic
# -fsched-stalled-insns-dep -fschedule-fusion -fschedule-insns2
# -fsemantic-interposition -fshow-column -fshrink-wrap -fsigned-zeros
# -fsplit-ivs-in-unroller -fsplit-wide-types -fssa-phiopt -fstack-protector
# -fstdarg-opt -fstrict-volatile-bitfields -fsync-libcalls -fthread-jumps
# -ftoplevel-reorder -ftrapping-math -ftree-bit-ccp -ftree-builtin-call-dce
# -ftree-ccp -ftree-ch -ftree-coalesce-vars -ftree-copy-prop
# -ftree-copyrename -ftree-cselim -ftree-dce -ftree-dominator-opts
# -ftree-dse -ftree-forwprop -ftree-fre -ftree-loop-if-convert
# -ftree-loop-im -ftree-loop-ivcanon -ftree-loop-optimize
# -ftree-parallelize-loops= -ftree-phiprop -ftree-pre -ftree-pta
# -ftree-reassoc -ftree-scev-cprop -ftree-sink -ftree-slsr -ftree-sra
# -ftree-switch-conversion -ftree-tail-merge -ftree-ter -ftree-vrp
# -funit-at-a-time -fvar-tracking -fverbose-asm -fzero-initialized-in-bss
# -m128bit-long-double -m64 -m80387 -maccumulate-outgoing-args
# -malign-stringops -mavx256-split-unaligned-load
# -mavx256-split-unaligned-store -mfancy-math-387 -mfentry -mfp-ret-in-387
# -mfxsr -mglibc -mieee-fp -mlong-double-80 -mno-red-zone -mno-sse4
# -mpush-args -mtls-direct-seg-refs -mvzeroupper

	.text
.Ltext0:
	.cfi_sections	.debug_frame
	.section	.text.unlikely,"ax",@progbits
.LCOLDB0:
	.text
.LHOTB0:
	.p2align 4,,15
	.section	.text.unlikely
.Ltext_cold0:
	.text
	.globl	foo
	.type	foo, @function
foo:
.LFB116:
	.file 1 "kernel/bounds.c"
	.loc 1 15 0
	.cfi_startproc
1:	call	__fentry__
	pushq	%rbp	#
	.cfi_def_cfa_offset 16
	.cfi_offset 6, -16
	movq	%rsp, %rbp	#,
	.cfi_def_cfa_register 6
	.loc 1 17 0
#APP
# 17 "kernel/bounds.c" 1
	
->NR_PAGEFLAGS $25 __NR_PAGEFLAGS	#
# 0 "" 2
	.loc 1 18 0
# 18 "kernel/bounds.c" 1
	
->MAX_NR_ZONES $4 __MAX_NR_ZONES	#
# 0 "" 2
	.loc 1 19 0
# 19 "kernel/bounds.c" 1
	
->NR_PCG_FLAGS $3 __NR_PCG_FLAGS	#
# 0 "" 2
	.loc 1 21 0
#NO_APP
	popq	%rbp	#
	.cfi_restore 6
	.cfi_def_cfa 7, 8
	ret
	.cfi_endproc
.LFE116:
	.size	foo, .-foo
	.section	.text.unlikely
.LCOLDE0:
	.text
.LHOTE0:
.Letext0:
	.section	.text.unlikely
.Letext_cold0:
	.file 2 "include/linux/page-flags.h"
	.file 3 "include/linux/mmzone.h"
	.file 4 "include/linux/printk.h"
	.file 5 "include/linux/kernel.h"
	.file 6 "include/linux/page_cgroup.h"
	.section	.note.GNU-stack,"",@progbits
